; ModuleID = '33/1931.c'
source_filename = "33/1931.c"
target datalayout = "e-m:e-p270:32:32-p271:32:32-p272:64:64-i64:64-f80:128-n8:16:32:64-S128"
target triple = "x86_64-pc-linux-gnu"

@.str = private unnamed_addr constant [3 x i8] c"%d\00", align 1
@.str.1 = private unnamed_addr constant [3 x i8] c"%s\00", align 1
@.str.2 = private unnamed_addr constant [4 x i8] c"%s\0A\00", align 1

; Function Attrs: noinline nounwind uwtable
define dso_local i32 @main() #0 {
  %1 = alloca i32, align 4
  %2 = alloca i32, align 4
  %3 = alloca i32, align 4
  %4 = alloca i32, align 4
  %5 = alloca i32, align 4
  %6 = alloca [1000 x [1000 x i8]], align 16
  %7 = alloca [1000 x [1000 x i8]], align 16
  store i32 0, i32* %1, align 4
  %8 = call i32 (i8*, ...) @__isoc99_scanf(i8* getelementptr inbounds ([3 x i8], [3 x i8]* @.str, i64 0, i64 0), i32* %2)
  store i32 0, i32* %3, align 4
  br label %9

9:                                                ; preds = %108, %0
  %10 = load i32, i32* %3, align 4
  %11 = load i32, i32* %2, align 4
  %12 = icmp slt i32 %10, %11
  br i1 %12, label %13, label %111

13:                                               ; preds = %9
  %14 = load i32, i32* %3, align 4
  %15 = sext i32 %14 to i64
  %16 = getelementptr inbounds [1000 x [1000 x i8]], [1000 x [1000 x i8]]* %6, i64 0, i64 %15
  %17 = getelementptr inbounds [1000 x i8], [1000 x i8]* %16, i64 0, i64 0
  %18 = call i32 (i8*, ...) @__isoc99_scanf(i8* getelementptr inbounds ([3 x i8], [3 x i8]* @.str.1, i64 0, i64 0), i8* %17)
  %19 = load i32, i32* %3, align 4
  %20 = sext i32 %19 to i64
  %21 = getelementptr inbounds [1000 x [1000 x i8]], [1000 x [1000 x i8]]* %6, i64 0, i64 %20
  %22 = getelementptr inbounds [1000 x i8], [1000 x i8]* %21, i64 0, i64 0
  %23 = call i64 @strlen(i8* %22) #3
  %24 = trunc i64 %23 to i32
  store i32 %24, i32* %5, align 4
  store i32 0, i32* %4, align 4
  br label %25

25:                                               ; preds = %98, %13
  %26 = load i32, i32* %4, align 4
  %27 = load i32, i32* %5, align 4
  %28 = icmp slt i32 %26, %27
  br i1 %28, label %29, label %101

29:                                               ; preds = %25
  %30 = load i32, i32* %3, align 4
  %31 = sext i32 %30 to i64
  %32 = getelementptr inbounds [1000 x [1000 x i8]], [1000 x [1000 x i8]]* %6, i64 0, i64 %31
  %33 = load i32, i32* %4, align 4
  %34 = sext i32 %33 to i64
  %35 = getelementptr inbounds [1000 x i8], [1000 x i8]* %32, i64 0, i64 %34
  %36 = load i8, i8* %35, align 1
  %37 = sext i8 %36 to i32
  %38 = icmp eq i32 %37, 65
  br i1 %38, label %39, label %46

39:                                               ; preds = %29
  %40 = load i32, i32* %3, align 4
  %41 = sext i32 %40 to i64
  %42 = getelementptr inbounds [1000 x [1000 x i8]], [1000 x [1000 x i8]]* %7, i64 0, i64 %41
  %43 = load i32, i32* %4, align 4
  %44 = sext i32 %43 to i64
  %45 = getelementptr inbounds [1000 x i8], [1000 x i8]* %42, i64 0, i64 %44
  store i8 84, i8* %45, align 1
  br label %46

46:                                               ; preds = %39, %29
  %47 = load i32, i32* %3, align 4
  %48 = sext i32 %47 to i64
  %49 = getelementptr inbounds [1000 x [1000 x i8]], [1000 x [1000 x i8]]* %6, i64 0, i64 %48
  %50 = load i32, i32* %4, align 4
  %51 = sext i32 %50 to i64
  %52 = getelementptr inbounds [1000 x i8], [1000 x i8]* %49, i64 0, i64 %51
  %53 = load i8, i8* %52, align 1
  %54 = sext i8 %53 to i32
  %55 = icmp eq i32 %54, 84
  br i1 %55, label %56, label %63

56:                                               ; preds = %46
  %57 = load i32, i32* %3, align 4
  %58 = sext i32 %57 to i64
  %59 = getelementptr inbounds [1000 x [1000 x i8]], [1000 x [1000 x i8]]* %7, i64 0, i64 %58
  %60 = load i32, i32* %4, align 4
  %61 = sext i32 %60 to i64
  %62 = getelementptr inbounds [1000 x i8], [1000 x i8]* %59, i64 0, i64 %61
  store i8 65, i8* %62, align 1
  br label %63

63:                                               ; preds = %56, %46
  %64 = load i32, i32* %3, align 4
  %65 = sext i32 %64 to i64
  %66 = getelementptr inbounds [1000 x [1000 x i8]], [1000 x [1000 x i8]]* %6, i64 0, i64 %65
  %67 = load i32, i32* %4, align 4
  %68 = sext i32 %67 to i64
  %69 = getelementptr inbounds [1000 x i8], [1000 x i8]* %66, i64 0, i64 %68
  %70 = load i8, i8* %69, align 1
  %71 = sext i8 %70 to i32
  %72 = icmp eq i32 %71, 71
  br i1 %72, label %73, label %80

73:                                               ; preds = %63
  %74 = load i32, i32* %3, align 4
  %75 = sext i32 %74 to i64
  %76 = getelementptr inbounds [1000 x [1000 x i8]], [1000 x [1000 x i8]]* %7, i64 0, i64 %75
  %77 = load i32, i32* %4, align 4
  %78 = sext i32 %77 to i64
  %79 = getelementptr inbounds [1000 x i8], [1000 x i8]* %76, i64 0, i64 %78
  store i8 67, i8* %79, align 1
  br label %80

80:                                               ; preds = %73, %63
  %81 = load i32, i32* %3, align 4
  %82 = sext i32 %81 to i64
  %83 = getelementptr inbounds [1000 x [1000 x i8]], [1000 x [1000 x i8]]* %6, i64 0, i64 %82
  %84 = load i32, i32* %4, align 4
  %85 = sext i32 %84 to i64
  %86 = getelementptr inbounds [1000 x i8], [1000 x i8]* %83, i64 0, i64 %85
  %87 = load i8, i8* %86, align 1
  %88 = sext i8 %87 to i32
  %89 = icmp eq i32 %88, 67
  br i1 %89, label %90, label %97

90:                                               ; preds = %80
  %91 = load i32, i32* %3, align 4
  %92 = sext i32 %91 to i64
  %93 = getelementptr inbounds [1000 x [1000 x i8]], [1000 x [1000 x i8]]* %7, i64 0, i64 %92
  %94 = load i32, i32* %4, align 4
  %95 = sext i32 %94 to i64
  %96 = getelementptr inbounds [1000 x i8], [1000 x i8]* %93, i64 0, i64 %95
  store i8 71, i8* %96, align 1
  br label %97

97:                                               ; preds = %90, %80
  br label %98

98:                                               ; preds = %97
  %99 = load i32, i32* %4, align 4
  %100 = add nsw i32 %99, 1
  store i32 %100, i32* %4, align 4
  br label %25

101:                                              ; preds = %25
  %102 = load i32, i32* %3, align 4
  %103 = sext i32 %102 to i64
  %104 = getelementptr inbounds [1000 x [1000 x i8]], [1000 x [1000 x i8]]* %7, i64 0, i64 %103
  %105 = load i32, i32* %5, align 4
  %106 = sext i32 %105 to i64
  %107 = getelementptr inbounds [1000 x i8], [1000 x i8]* %104, i64 0, i64 %106
  store i8 0, i8* %107, align 1
  br label %108

108:                                              ; preds = %101
  %109 = load i32, i32* %3, align 4
  %110 = add nsw i32 %109, 1
  store i32 %110, i32* %3, align 4
  br label %9

111:                                              ; preds = %9
  store i32 0, i32* %3, align 4
  store i32 0, i32* %3, align 4
  br label %112

112:                                              ; preds = %122, %111
  %113 = load i32, i32* %3, align 4
  %114 = load i32, i32* %2, align 4
  %115 = icmp slt i32 %113, %114
  br i1 %115, label %116, label %125

116:                                              ; preds = %112
  %117 = load i32, i32* %3, align 4
  %118 = sext i32 %117 to i64
  %119 = getelementptr inbounds [1000 x [1000 x i8]], [1000 x [1000 x i8]]* %7, i64 0, i64 %118
  %120 = getelementptr inbounds [1000 x i8], [1000 x i8]* %119, i64 0, i64 0
  %121 = call i32 (i8*, ...) @printf(i8* getelementptr inbounds ([4 x i8], [4 x i8]* @.str.2, i64 0, i64 0), i8* %120)
  br label %122

122:                                              ; preds = %116
  %123 = load i32, i32* %3, align 4
  %124 = add nsw i32 %123, 1
  store i32 %124, i32* %3, align 4
  br label %112

125:                                              ; preds = %112
  %126 = load i32, i32* %1, align 4
  ret i32 %126
}

declare dso_local i32 @__isoc99_scanf(i8*, ...) #1

; Function Attrs: nounwind readonly
declare dso_local i64 @strlen(i8*) #2

declare dso_local i32 @printf(i8*, ...) #1


!llvm.module.flags = !{!0}
!llvm.ident = !{!1}

!0 = !{i32 1, !"wchar_size", i32 4}
!1 = !{!"clang version 10.0.0-4ubuntu1 "}
